target datalayout = "e-m:e-p270:32:32-p271:32:32-p272:64:64-i64:64-i128:128-f80:128-n8:16:32:64-S128"
target triple = "x86_64-pc-linux-gnu"

%"class.std::allocator" = type { i8 }
%"class.osgeo::proj::CPLJSonStreamingWriter" = type <{ %"class.std::__cxx11::basic_string", ptr, ptr, i8, [7 x i8], %"class.std::__cxx11::basic_string", %"class.std::__cxx11::basic_string", i32, i8, [3 x i8], %"class.std::vector", i8, [7 x i8] }>
%"class.std::__cxx11::basic_string" = type { %"struct.std::__cxx11::basic_string<char>::_Alloc_hider", i64, %union.anon }
%"struct.std::__cxx11::basic_string<char>::_Alloc_hider" = type { ptr }
%union.anon = type { i64, [8 x i8] }
%"class.std::vector" = type { %"struct.std::_Vector_base" }
%"struct.std::_Vector_base" = type { %"struct.std::_Vector_base<osgeo::proj::CPLJSonStreamingWriter::State, std::allocator<osgeo::proj::CPLJSonStreamingWriter::State>>::_Vector_impl" }
%"struct.std::_Vector_base<osgeo::proj::CPLJSonStreamingWriter::State, std::allocator<osgeo::proj::CPLJSonStreamingWriter::State>>::_Vector_impl" = type { %"struct.std::_Vector_base<osgeo::proj::CPLJSonStreamingWriter::State, std::allocator<osgeo::proj::CPLJSonStreamingWriter::State>>::_Vector_impl_data" }
%"struct.std::_Vector_base<osgeo::proj::CPLJSonStreamingWriter::State, std::allocator<osgeo::proj::CPLJSonStreamingWriter::State>>::_Vector_impl_data" = type { ptr, ptr, ptr }

; Function Attrs: mustprogress uwtable
define hidden void @_ZN5osgeo4proj22CPLJSonStreamingWriter5PrintERKNSt7__cxx1112basic_stringIcSt11char_traitsIcESaIcEEE(ptr noundef nonnull align 8 dereferenceable(153) %0, ptr noundef nonnull align 8 dereferenceable(32) %1) #0 align 2 {
  %3 = alloca ptr, align 8
  %4 = alloca ptr, align 8
  store ptr %0, ptr %3, align 8
  store ptr %1, ptr %4, align 8
  %5 = load ptr, ptr %3, align 8
  %6 = getelementptr inbounds %"class.osgeo::proj::CPLJSonStreamingWriter", ptr %5, i32 0, i32 1
  %7 = load ptr, ptr %6, align 8
  %8 = icmp ne ptr %7, null
  br i1 %8, label %9, label %16

9:                                                ; preds = %2
  %10 = getelementptr inbounds %"class.osgeo::proj::CPLJSonStreamingWriter", ptr %5, i32 0, i32 1
  %11 = load ptr, ptr %10, align 8
  %12 = load ptr, ptr %4, align 8
  %13 = call noundef ptr @_ZNKSt7__cxx1112basic_stringIcSt11char_traitsIcESaIcEE5c_strEv(ptr noundef nonnull align 8 dereferenceable(32) %12) #13
  %14 = getelementptr inbounds %"class.osgeo::proj::CPLJSonStreamingWriter", ptr %5, i32 0, i32 2
  %15 = load ptr, ptr %14, align 8
  call void %11(ptr noundef %13, ptr noundef %15)
  br label %20

16:                                               ; preds = %2
  %17 = load ptr, ptr %4, align 8
  %18 = getelementptr inbounds %"class.osgeo::proj::CPLJSonStreamingWriter", ptr %5, i32 0, i32 0
  %19 = call noundef nonnull align 8 dereferenceable(32) ptr @_ZNSt7__cxx1112basic_stringIcSt11char_traitsIcESaIcEEpLERKS4_(ptr noundef nonnull align 8 dereferenceable(32) %18, ptr noundef nonnull align 8 dereferenceable(32) %17)
  br label %20

20:                                               ; preds = %16, %9
  ret void
}

; Function Attrs: mustprogress uwtable
define hidden void @_ZN5osgeo4proj22CPLJSonStreamingWriter11AddUnquotedEPKc(ptr noundef nonnull align 8 dereferenceable(153) %0, ptr noundef %1) #0 align 2 personality ptr @__gxx_personality_v0 {
  %3 = alloca ptr, align 8
  %4 = alloca ptr, align 8
  %5 = alloca %"class.std::__cxx11::basic_string", align 8
  %6 = alloca %"class.std::allocator", align 1
  %7 = alloca ptr, align 8
  %8 = alloca i32, align 4
  store ptr %0, ptr %3, align 8
  store ptr %1, ptr %4, align 8
  %9 = load ptr, ptr %3, align 8
  call void @_ZN5osgeo4proj22CPLJSonStreamingWriter17EmitCommaIfNeededEv(ptr noundef nonnull align 8 dereferenceable(153) %9)
  %10 = load ptr, ptr %4, align 8
  call void @_ZNSaIcEC1Ev(ptr noundef nonnull align 1 dereferenceable(1) %6) #13
  invoke void @_ZNSt7__cxx1112basic_stringIcSt11char_traitsIcESaIcEEC1EPKcRKS3_(ptr noundef nonnull align 8 dereferenceable(32) %5, ptr noundef %10, ptr noundef nonnull align 1 dereferenceable(1) %6)
          to label %11 unwind label %13

11:                                               ; preds = %2
  invoke void @_ZN5osgeo4proj22CPLJSonStreamingWriter5PrintERKNSt7__cxx1112basic_stringIcSt11char_traitsIcESaIcEEE(ptr noundef nonnull align 8 dereferenceable(153) %9, ptr noundef nonnull align 8 dereferenceable(32) %5)
          to label %12 unwind label %17

12:                                               ; preds = %11
  call void @_ZNSt7__cxx1112basic_stringIcSt11char_traitsIcESaIcEED1Ev(ptr noundef nonnull align 8 dereferenceable(32) %5) #13
  call void @_ZNSaIcED1Ev(ptr noundef nonnull align 1 dereferenceable(1) %6) #13
  ret void

13:                                               ; preds = %2
  %14 = landingpad { ptr, i32 }
          cleanup
  %15 = extractvalue { ptr, i32 } %14, 0
  store ptr %15, ptr %7, align 8
  %16 = extractvalue { ptr, i32 } %14, 1
  store i32 %16, ptr %8, align 4
  br label %21

17:                                               ; preds = %11
  %18 = landingpad { ptr, i32 }
          cleanup
  %19 = extractvalue { ptr, i32 } %18, 0
  store ptr %19, ptr %7, align 8
  %20 = extractvalue { ptr, i32 } %18, 1
  store i32 %20, ptr %8, align 4
  call void @_ZNSt7__cxx1112basic_stringIcSt11char_traitsIcESaIcEED1Ev(ptr noundef nonnull align 8 dereferenceable(32) %5) #13
  br label %21

21:                                               ; preds = %17, %13
  call void @_ZNSaIcED1Ev(ptr noundef nonnull align 1 dereferenceable(1) %6) #13
  br label %22

22:                                               ; preds = %21
  %23 = load ptr, ptr %7, align 8
  %24 = load i32, ptr %8, align 4
  %25 = insertvalue { ptr, i32 } poison, ptr %23, 0
  %26 = insertvalue { ptr, i32 } %25, i32 %24, 1
  resume { ptr, i32 } %26
}